; Function Attrs: mustprogress nofree norecurse nosync nounwind willreturn memory(read, inaccessiblemem: none) uwtable
define internal noundef ptr @_ZL28funnel_statistics_get_filterP16_funnel_ops_id_t(ptr noundef readonly %0) #12 {
  %.not = icmp eq ptr %0, null
  br i1 %.not, label %7, label %2

2:                                                ; preds = %1
  %3 = load ptr, ptr %0, align 8
  %.not6 = icmp eq ptr %3, null
  br i1 %.not6, label %7, label %4

4:                                                ; preds = %2
  %5 = getelementptr inbounds i8, ptr %3, i64 48
  %6 = load ptr, ptr %5, align 8
  %.not.i.i.i = icmp eq ptr %6, null
  %spec.select.i.i.i = select i1 %.not.i.i.i, ptr @_ZN10QByteArray6_emptyE, ptr %6
  br label %7

7:                                                ; preds = %1, %2, %4
  %.0 = phi ptr [ %spec.select.i.i.i, %4 ], [ null, %2 ], [ null, %1 ]
  ret ptr %.0
}